 {
   <insert_a_suppression_name_here>
   Memcheck:Leak
   match-leak-kinds: possible
   fun:malloc_zone_calloc
   fun:_ZL11freeBucketsP11NXHashTablei
   fun:_ZL10remapClassP10objc_class
   fun:_ZN10TimeLogger3logEPKc
   fun:NXHashInsert
   fun:_ZL13hashPrototypePKvS0_
   fun:NXCreateHashTableFromZone
   fun:NXCreateHashTableFromZone
   fun:_ZNSt3__112__hash_tableINS_17__hash_value_typeImPN23objc_references_support20ObjectAssociationMapEEENS_22__unordered_map_hasherImS5_NS2_20DisguisedPointerHashELb1EEENS_21__unordered_map_equalImS5_NS2_21DisguisedPointerEqualELb1EEENS2_13ObjcAllocatorIS5_EEE8__rehashEm
   fun:_ZNK8objc_opt17objc_stringhash_t8getIndexEPKc
   fun:_Z14getDataSectionI15objc_image_infoEPT_PK14mach_header_64PKcPmS8_
   fun:__objc_personality_v0
}

{
   <insert_a_suppression_name_here>
   Memcheck:Leak
   match-leak-kinds: possible
   fun:calloc
   fun:map_images_nolock
   fun:__objc_personality_v0
   fun:_ZN4dyldL18notifyBatchPartialE17dyld_image_statesbPFPKcS0_jPK15dyld_image_infoEbb
   fun:_ZN4dyld21registerObjCNotifiersEPFvjPKPKcPKPK11mach_headerEPFvS1_S6_ESC_
   fun:_dyld_objc_notify_register
   fun:environ_init
   fun:_os_object_init
   fun:libdispatch_init
   fun:libSystem_initializer
   fun:_ZN16ImageLoaderMachO18doModInitFunctionsERKN11ImageLoader11LinkContextE
   fun:_ZN16ImageLoaderMachO16doInitializationERKN11ImageLoader11LinkContextE
}

{
   <insert_a_suppression_name_here>
   Memcheck:Leak
   match-leak-kinds: possible
   fun:malloc_zone_malloc
   fun:NXHashGet
   fun:NXCreateHashTableFromZone
   fun:NXMapRemove
   fun:_unload_image
   fun:_objc_flush_caches
   fun:_objc_flush_caches
   fun:_objc_flush_caches
   fun:_objc_flush_caches
   fun:_read_images
   fun:_hasObjcContents
   fun:__objc_personality_v0
}

{
   <insert_a_suppression_name_here>
   Memcheck:Leak
   match-leak-kinds: possible
   fun:malloc_zone_malloc
   fun:NXHashGet
   fun:NXCreateHashTableFromZone
   fun:_read_images
   fun:_hasObjcContents
   fun:__objc_personality_v0
   fun:_ZN4dyldL18notifyBatchPartialE17dyld_image_statesbPFPKcS0_jPK15dyld_image_infoEbb
   fun:_ZN4dyld21registerObjCNotifiersEPFvjPKPKcPKPK11mach_headerEPFvS1_S6_ESC_
   fun:_dyld_objc_notify_register
   fun:environ_init
   fun:_os_object_init
   fun:libdispatch_init
}

{
   <insert_a_suppression_name_here>
   Memcheck:Leak
   match-leak-kinds: possible
   fun:malloc_zone_malloc
   fun:_ZN10objc_class14setHasCustomRREb
   fun:_ZL11addSubclassP10objc_classS0_
   fun:_read_images
   fun:_hasObjcContents
   fun:__objc_personality_v0
   fun:_ZN4dyldL18notifyBatchPartialE17dyld_image_statesbPFPKcS0_jPK15dyld_image_infoEbb
   fun:_ZN4dyld21registerObjCNotifiersEPFvjPKPKcPKPK11mach_headerEPFvS1_S6_ESC_
   fun:_dyld_objc_notify_register
   fun:environ_init
   fun:_os_object_init
   fun:libdispatch_init
}

{
   <insert_a_suppression_name_here>
   Memcheck:Leak
   match-leak-kinds: possible
   fun:malloc_zone_malloc
   fun:_ZN10objc_class14setHasCustomRREb
   fun:_ZL11addSubclassP10objc_classS0_
   fun:_ZNSt3__112__hash_tableINS_17__hash_value_typeImPN23objc_references_support20ObjectAssociationMapEEENS_22__unordered_map_hasherImS5_NS2_20DisguisedPointerHashELb1EEENS_21__unordered_map_equalImS5_NS2_21DisguisedPointerEqualELb1EEENS2_13ObjcAllocatorIS5_EEE8__rehashEm
   fun:_ZL18updateCustomRR_AWZP10objc_classP8method_t
   fun:_ZL9addMethodP10objc_classP13objc_selectorPFvvEPKcb
   fun:_ZL17realizeAllClassesv
   fun:_objc_flush_caches
   fun:_objc_flush_caches
   fun:_objc_flush_caches
   fun:_objc_flush_caches
   fun:_read_images
}

{
   <insert_a_suppression_name_here>
   Memcheck:Leak
   match-leak-kinds: possible
   fun:malloc_zone_calloc
   fun:_ZL11freeBucketsP11NXHashTablei
   fun:NXHashInsert
   fun:_ZL13hashPrototypePKvS0_
   fun:_read_images
   fun:_hasObjcContents
   fun:__objc_personality_v0
   fun:_ZN4dyldL18notifyBatchPartialE17dyld_image_statesbPFPKcS0_jPK15dyld_image_infoEbb
   fun:_ZN4dyld21registerObjCNotifiersEPFvjPKPKcPKPK11mach_headerEPFvS1_S6_ESC_
   fun:_dyld_objc_notify_register
   fun:environ_init
   fun:_os_object_init
}
